target datalayout = "e-m:e-p270:32:32-p271:32:32-p272:64:64-i64:64-i128:128-f80:128-n8:16:32:64-S128"
target triple = "x86_64-pc-linux-gnu"

%struct.hb_object_header_t = type { %struct.hb_reference_count_t, %struct.hb_atomic_int_t, %struct.hb_atomic_ptr_t }
%struct.hb_reference_count_t = type { %struct.hb_atomic_int_t }
%struct.hb_atomic_int_t = type { i32 }
%struct.hb_atomic_ptr_t = type { ptr }
%struct.hb_segment_properties_t = type { i32, i32, ptr, ptr, ptr }
%struct.hb_buffer_t = type <{ %struct.hb_object_header_t, ptr, i32, i32, i32, i32, i32, i32, %struct.hb_segment_properties_t, i8, i8, i8, i8, i32, i32, i32, i32, [4 x i8], ptr, ptr, ptr, [2 x [5 x i32]], [2 x i32], i8, i8, [2 x i8], i32, i32, i32, ptr, ptr, ptr, i32, [4 x i8] }>

; Function Attrs: mustprogress nounwind uwtable
define hidden noundef ptr @_ZN11hb_buffer_t18get_scratch_bufferEPj(ptr noundef nonnull align 8 dereferenceable(220) %0, ptr noundef %1) #0 align 2 {
  %3 = alloca ptr, align 8
  %4 = alloca ptr, align 8
  store ptr %0, ptr %3, align 8
  store ptr %1, ptr %4, align 8
  %5 = load ptr, ptr %3, align 8
  %6 = getelementptr inbounds %struct.hb_buffer_t, ptr %5, i32 0, i32 11
  store i8 0, ptr %6, align 2
  %7 = getelementptr inbounds %struct.hb_buffer_t, ptr %5, i32 0, i32 12
  store i8 0, ptr %7, align 1
  %8 = getelementptr inbounds %struct.hb_buffer_t, ptr %5, i32 0, i32 15
  store i32 0, ptr %8, align 4
  %9 = getelementptr inbounds %struct.hb_buffer_t, ptr %5, i32 0, i32 18
  %10 = load ptr, ptr %9, align 8
  %11 = getelementptr inbounds %struct.hb_buffer_t, ptr %5, i32 0, i32 19
  store ptr %10, ptr %11, align 8
  %12 = getelementptr inbounds %struct.hb_buffer_t, ptr %5, i32 0, i32 16
  %13 = load i32, ptr %12, align 8
  %14 = zext i32 %13 to i64
  %15 = mul i64 %14, 20
  %16 = udiv i64 %15, 8
  %17 = trunc i64 %16 to i32
  %18 = load ptr, ptr %4, align 8
  store i32 %17, ptr %18, align 4
  %19 = getelementptr inbounds %struct.hb_buffer_t, ptr %5, i32 0, i32 20
  %20 = load ptr, ptr %19, align 8
  ret ptr %20
}