; Function Attrs: mustprogress nofree norecurse nosync nounwind willreturn memory(argmem: readwrite) uwtable
define hidden noundef ptr @_ZN11hb_buffer_t18get_scratch_bufferEPj(ptr nocapture noundef nonnull align 8 dereferenceable(220) %0, ptr nocapture noundef writeonly %1) local_unnamed_addr #1 align 2 {
  %3 = getelementptr inbounds i8, ptr %0, i64 82
  store i8 0, ptr %3, align 2
  %4 = getelementptr inbounds i8, ptr %0, i64 83
  store i8 0, ptr %4, align 1
  %5 = getelementptr inbounds i8, ptr %0, i64 92
  store i32 0, ptr %5, align 4
  %6 = getelementptr inbounds i8, ptr %0, i64 104
  %7 = load ptr, ptr %6, align 8
  %8 = getelementptr inbounds i8, ptr %0, i64 112
  store ptr %7, ptr %8, align 8
  %9 = getelementptr inbounds i8, ptr %0, i64 96
  %10 = load i32, ptr %9, align 8
  %11 = zext i32 %10 to i64
  %12 = mul nuw nsw i64 %11, 20
  %13 = lshr i64 %12, 3
  %14 = trunc i64 %13 to i32
  store i32 %14, ptr %1, align 4
  %15 = getelementptr inbounds i8, ptr %0, i64 120
  %16 = load ptr, ptr %15, align 8
  ret ptr %16
}